target datalayout = "e-m:e-p270:32:32-p271:32:32-p272:64:64-i64:64-i128:128-f80:128-n8:16:32:64-S128"
target triple = "x86_64-pc-linux-gnu"

%struct.Csw_Cut_t_ = type { ptr, i32, i32, i32, i16, i8, i8, [0 x i32] }
%struct.Csw_Man_t_ = type { ptr, ptr, ptr, ptr, ptr, ptr, i32, i32, i32, i32, i32, i32, ptr, [4 x ptr], i32, i32, i32, i32, i32, i64, i64, i64, i64 }
%struct.Aig_Man_t_ = type { ptr, ptr, ptr, ptr, ptr, ptr, ptr, %struct.Aig_Obj_t_, i32, i32, i32, i32, i32, i32, [7 x i32], i32, ptr, i32, ptr, i32, ptr, i32, i32, i32, ptr, i32, i32, i32, i32, i32, ptr, ptr, i32, ptr, ptr, i32, ptr, ptr, i32, i32, i32, ptr, ptr, ptr, ptr, ptr, ptr, ptr, ptr, ptr, ptr, ptr, ptr, ptr, ptr, i32, ptr, ptr, ptr, ptr, i32, i64, i64, i64, ptr, ptr }
%struct.Aig_Obj_t_ = type { %union.anon, ptr, ptr, i64, i32, i32, %union.anon.0 }
%union.anon = type { ptr }
%union.anon.0 = type { ptr }
%struct.Vec_Ptr_t_ = type { i32, i32, ptr }

; Function Attrs: nounwind uwtable
define internal ptr @Vec_PtrEntry(ptr noundef %0, i32 noundef %1) #0 {
  %3 = alloca ptr, align 8
  %4 = alloca i32, align 4
  store ptr %0, ptr %3, align 8
  store i32 %1, ptr %4, align 4
  %5 = load ptr, ptr %3, align 8
  %6 = getelementptr inbounds %struct.Vec_Ptr_t_, ptr %5, i32 0, i32 2
  %7 = load ptr, ptr %6, align 8
  %8 = load i32, ptr %4, align 4
  %9 = sext i32 %8 to i64
  %10 = getelementptr inbounds ptr, ptr %7, i64 %9
  %11 = load ptr, ptr %10, align 8
  ret ptr %11
}

; Function Attrs: nounwind uwtable
define internal i32 @Kit_TruthWordNum(i32 noundef %0) #0 {
  %2 = alloca i32, align 4
  store i32 %0, ptr %2, align 4
  %3 = load i32, ptr %2, align 4
  %4 = icmp sle i32 %3, 5
  br i1 %4, label %5, label %6

5:                                                ; preds = %1
  br label %10

6:                                                ; preds = %1
  %7 = load i32, ptr %2, align 4
  %8 = sub nsw i32 %7, 5
  %9 = shl i32 1, %8
  br label %10

10:                                               ; preds = %6, %5
  %11 = phi i32 [ 1, %5 ], [ %9, %6 ]
  ret i32 %11
}

; Function Attrs: nounwind uwtable
define internal ptr @Aig_Not(ptr noundef %0) #0 {
  %2 = alloca ptr, align 8
  store ptr %0, ptr %2, align 8
  %3 = load ptr, ptr %2, align 8
  %4 = ptrtoint ptr %3 to i64
  %5 = xor i64 %4, 1
  %6 = inttoptr i64 %5 to ptr
  ret ptr %6
}

; Function Attrs: nounwind uwtable
define internal i32 @Kit_TruthIsOpposite(ptr noundef %0, ptr noundef %1, i32 noundef %2) #0 {
  %4 = alloca i32, align 4
  %5 = alloca ptr, align 8
  %6 = alloca ptr, align 8
  %7 = alloca i32, align 4
  %8 = alloca i32, align 4
  store ptr %0, ptr %5, align 8
  store ptr %1, ptr %6, align 8
  store i32 %2, ptr %7, align 4
  %9 = load i32, ptr %7, align 4
  %10 = call i32 @Kit_TruthWordNum(i32 noundef %9)
  %11 = sub nsw i32 %10, 1
  store i32 %11, ptr %8, align 4
  br label %12

12:                                               ; preds = %30, %3
  %13 = load i32, ptr %8, align 4
  %14 = icmp sge i32 %13, 0
  br i1 %14, label %15, label %33

15:                                               ; preds = %12
  %16 = load ptr, ptr %5, align 8
  %17 = load i32, ptr %8, align 4
  %18 = sext i32 %17 to i64
  %19 = getelementptr inbounds i32, ptr %16, i64 %18
  %20 = load i32, ptr %19, align 4
  %21 = load ptr, ptr %6, align 8
  %22 = load i32, ptr %8, align 4
  %23 = sext i32 %22 to i64
  %24 = getelementptr inbounds i32, ptr %21, i64 %23
  %25 = load i32, ptr %24, align 4
  %26 = xor i32 %25, -1
  %27 = icmp ne i32 %20, %26
  br i1 %27, label %28, label %29

28:                                               ; preds = %15
  store i32 0, ptr %4, align 4
  br label %34

29:                                               ; preds = %15
  br label %30

30:                                               ; preds = %29
  %31 = load i32, ptr %8, align 4
  %32 = add nsw i32 %31, -1
  store i32 %32, ptr %8, align 4
  br label %12, !llvm.loop !10

33:                                               ; preds = %12
  store i32 1, ptr %4, align 4
  br label %34

34:                                               ; preds = %33, %28
  %35 = load i32, ptr %4, align 4
  ret i32 %35
}

; Function Attrs: nounwind uwtable
define internal ptr @Aig_ManObj(ptr noundef %0, i32 noundef %1) #0 {
  %3 = alloca ptr, align 8
  %4 = alloca i32, align 4
  store ptr %0, ptr %3, align 8
  store i32 %1, ptr %4, align 4
  %5 = load ptr, ptr %3, align 8
  %6 = getelementptr inbounds %struct.Aig_Man_t_, ptr %5, i32 0, i32 4
  %7 = load ptr, ptr %6, align 8
  %8 = icmp ne ptr %7, null
  br i1 %8, label %9, label %15

9:                                                ; preds = %2
  %10 = load ptr, ptr %3, align 8
  %11 = getelementptr inbounds %struct.Aig_Man_t_, ptr %10, i32 0, i32 4
  %12 = load ptr, ptr %11, align 8
  %13 = load i32, ptr %4, align 4
  %14 = call ptr @Vec_PtrEntry(ptr noundef %12, i32 noundef %13)
  br label %16

15:                                               ; preds = %2
  br label %16

16:                                               ; preds = %15, %9
  %17 = phi ptr [ %14, %9 ], [ null, %15 ]
  ret ptr %17
}

; Function Attrs: nounwind uwtable
define internal i32 @Kit_TruthIsEqual(ptr noundef %0, ptr noundef %1, i32 noundef %2) #0 {
  %4 = alloca i32, align 4
  %5 = alloca ptr, align 8
  %6 = alloca ptr, align 8
  %7 = alloca i32, align 4
  %8 = alloca i32, align 4
  store ptr %0, ptr %5, align 8
  store ptr %1, ptr %6, align 8
  store i32 %2, ptr %7, align 4
  %9 = load i32, ptr %7, align 4
  %10 = call i32 @Kit_TruthWordNum(i32 noundef %9)
  %11 = sub nsw i32 %10, 1
  store i32 %11, ptr %8, align 4
  br label %12

12:                                               ; preds = %29, %3
  %13 = load i32, ptr %8, align 4
  %14 = icmp sge i32 %13, 0
  br i1 %14, label %15, label %32

15:                                               ; preds = %12
  %16 = load ptr, ptr %5, align 8
  %17 = load i32, ptr %8, align 4
  %18 = sext i32 %17 to i64
  %19 = getelementptr inbounds i32, ptr %16, i64 %18
  %20 = load i32, ptr %19, align 4
  %21 = load ptr, ptr %6, align 8
  %22 = load i32, ptr %8, align 4
  %23 = sext i32 %22 to i64
  %24 = getelementptr inbounds i32, ptr %21, i64 %23
  %25 = load i32, ptr %24, align 4
  %26 = icmp ne i32 %20, %25
  br i1 %26, label %27, label %28

27:                                               ; preds = %15
  store i32 0, ptr %4, align 4
  br label %33

28:                                               ; preds = %15
  br label %29

29:                                               ; preds = %28
  %30 = load i32, ptr %8, align 4
  %31 = add nsw i32 %30, -1
  store i32 %31, ptr %8, align 4
  br label %12, !llvm.loop !9

32:                                               ; preds = %12
  store i32 1, ptr %4, align 4
  br label %33

33:                                               ; preds = %32, %27
  %34 = load i32, ptr %4, align 4
  ret i32 %34
}

; Function Attrs: nounwind uwtable
define internal ptr @Csw_CutTruth(ptr noundef %0) #0 {
  %2 = alloca ptr, align 8
  store ptr %0, ptr %2, align 8
  %3 = load ptr, ptr %2, align 8
  %4 = getelementptr inbounds %struct.Csw_Cut_t_, ptr %3, i32 0, i32 7
  %5 = getelementptr inbounds [0 x i32], ptr %4, i64 0, i64 0
  %6 = load ptr, ptr %2, align 8
  %7 = getelementptr inbounds %struct.Csw_Cut_t_, ptr %6, i32 0, i32 5
  %8 = load i8, ptr %7, align 2
  %9 = sext i8 %8 to i32
  %10 = sext i32 %9 to i64
  %11 = getelementptr inbounds i32, ptr %5, i64 %10
  ret ptr %11
}

; Function Attrs: nounwind uwtable
define i32 @Csw_CutHash(ptr noundef %0) #0 {
  %2 = alloca ptr, align 8
  %3 = alloca i32, align 4
  %4 = alloca i32, align 4
  store ptr %0, ptr %2, align 8
  store i32 0, ptr %3, align 4
  store i32 0, ptr %4, align 4
  br label %5

5:                                                ; preds = %26, %1
  %6 = load i32, ptr %4, align 4
  %7 = load ptr, ptr %2, align 8
  %8 = getelementptr inbounds %struct.Csw_Cut_t_, ptr %7, i32 0, i32 6
  %9 = load i8, ptr %8, align 1
  %10 = sext i8 %9 to i32
  %11 = icmp slt i32 %6, %10
  br i1 %11, label %12, label %29

12:                                               ; preds = %5
  %13 = load ptr, ptr %2, align 8
  %14 = getelementptr inbounds %struct.Csw_Cut_t_, ptr %13, i32 0, i32 7
  %15 = load i32, ptr %4, align 4
  %16 = sext i32 %15 to i64
  %17 = getelementptr inbounds [0 x i32], ptr %14, i64 0, i64 %16
  %18 = load i32, ptr %17, align 4
  %19 = load i32, ptr %4, align 4
  %20 = sext i32 %19 to i64
  %21 = getelementptr inbounds [128 x i32], ptr @Csw_CutHash.s_FPrimes, i64 0, i64 %20
  %22 = load i32, ptr %21, align 4
  %23 = mul nsw i32 %18, %22
  %24 = load i32, ptr %3, align 4
  %25 = xor i32 %24, %23
  store i32 %25, ptr %3, align 4
  br label %26

26:                                               ; preds = %12
  %27 = load i32, ptr %4, align 4
  %28 = add nsw i32 %27, 1
  store i32 %28, ptr %4, align 4
  br label %5, !llvm.loop !4

29:                                               ; preds = %5
  %30 = load i32, ptr %3, align 4
  ret i32 %30
}

; Function Attrs: nounwind uwtable
define ptr @Csw_TableCutLookup(ptr noundef %0, ptr noundef %1) #0 {
  %3 = alloca ptr, align 8
  %4 = alloca ptr, align 8
  %5 = alloca ptr, align 8
  %6 = alloca ptr, align 8
  %7 = alloca ptr, align 8
  %8 = alloca ptr, align 8
  %9 = alloca i32, align 4
  store ptr %0, ptr %3, align 8
  store ptr %1, ptr %4, align 8
  store ptr null, ptr %5, align 8
  %10 = load ptr, ptr %4, align 8
  %11 = call i32 @Csw_CutHash(ptr noundef %10)
  %12 = load ptr, ptr %3, align 8
  %13 = getelementptr inbounds %struct.Csw_Man_t_, ptr %12, i32 0, i32 6
  %14 = load i32, ptr %13, align 8
  %15 = urem i32 %11, %14
  store i32 %15, ptr %9, align 4
  %16 = load ptr, ptr %3, align 8
  %17 = getelementptr inbounds %struct.Csw_Man_t_, ptr %16, i32 0, i32 5
  %18 = load ptr, ptr %17, align 8
  %19 = load i32, ptr %9, align 4
  %20 = sext i32 %19 to i64
  %21 = getelementptr inbounds ptr, ptr %18, i64 %20
  %22 = load ptr, ptr %21, align 8
  store ptr %22, ptr %6, align 8
  br label %23

23:                                               ; preds = %113, %2
  %24 = load ptr, ptr %6, align 8
  %25 = icmp ne ptr %24, null
  br i1 %25, label %26, label %117

26:                                               ; preds = %23
  %27 = load ptr, ptr %6, align 8
  %28 = getelementptr inbounds %struct.Csw_Cut_t_, ptr %27, i32 0, i32 6
  %29 = load i8, ptr %28, align 1
  %30 = sext i8 %29 to i32
  %31 = load ptr, ptr %4, align 8
  %32 = getelementptr inbounds %struct.Csw_Cut_t_, ptr %31, i32 0, i32 6
  %33 = load i8, ptr %32, align 1
  %34 = sext i8 %33 to i32
  %35 = icmp ne i32 %30, %34
  br i1 %35, label %36, label %37

36:                                               ; preds = %26
  br label %113

37:                                               ; preds = %26
  %38 = load ptr, ptr %6, align 8
  %39 = getelementptr inbounds %struct.Csw_Cut_t_, ptr %38, i32 0, i32 2
  %40 = load i32, ptr %39, align 4
  %41 = load ptr, ptr %4, align 8
  %42 = getelementptr inbounds %struct.Csw_Cut_t_, ptr %41, i32 0, i32 2
  %43 = load i32, ptr %42, align 4
  %44 = icmp ne i32 %40, %43
  br i1 %44, label %45, label %46

45:                                               ; preds = %37
  br label %113

46:                                               ; preds = %37
  %47 = load ptr, ptr %6, align 8
  %48 = getelementptr inbounds %struct.Csw_Cut_t_, ptr %47, i32 0, i32 7
  %49 = getelementptr inbounds [0 x i32], ptr %48, i64 0, i64 0
  %50 = load ptr, ptr %4, align 8
  %51 = getelementptr inbounds %struct.Csw_Cut_t_, ptr %50, i32 0, i32 7
  %52 = getelementptr inbounds [0 x i32], ptr %51, i64 0, i64 0
  %53 = load ptr, ptr %4, align 8
  %54 = getelementptr inbounds %struct.Csw_Cut_t_, ptr %53, i32 0, i32 6
  %55 = load i8, ptr %54, align 1
  %56 = sext i8 %55 to i64
  %57 = mul i64 4, %56
  %58 = call i32 @memcmp(ptr noundef %49, ptr noundef %52, i64 noundef %57) #2
  %59 = icmp ne i32 %58, 0
  br i1 %59, label %60, label %61

60:                                               ; preds = %46
  br label %113

61:                                               ; preds = %46
  %62 = load ptr, ptr %6, align 8
  %63 = call ptr @Csw_CutTruth(ptr noundef %62)
  store ptr %63, ptr %8, align 8
  %64 = load ptr, ptr %4, align 8
  %65 = call ptr @Csw_CutTruth(ptr noundef %64)
  store ptr %65, ptr %7, align 8
  %66 = load ptr, ptr %8, align 8
  %67 = getelementptr inbounds i32, ptr %66, i64 0
  %68 = load i32, ptr %67, align 4
  %69 = and i32 %68, 1
  %70 = load ptr, ptr %7, align 8
  %71 = getelementptr inbounds i32, ptr %70, i64 0
  %72 = load i32, ptr %71, align 4
  %73 = and i32 %72, 1
  %74 = icmp eq i32 %69, %73
  br i1 %74, label %75, label %93

75:                                               ; preds = %61
  %76 = load ptr, ptr %8, align 8
  %77 = load ptr, ptr %7, align 8
  %78 = load ptr, ptr %4, align 8
  %79 = getelementptr inbounds %struct.Csw_Cut_t_, ptr %78, i32 0, i32 6
  %80 = load i8, ptr %79, align 1
  %81 = sext i8 %80 to i32
  %82 = call i32 @Kit_TruthIsEqual(ptr noundef %76, ptr noundef %77, i32 noundef %81)
  %83 = icmp ne i32 %82, 0
  br i1 %83, label %84, label %92

84:                                               ; preds = %75
  %85 = load ptr, ptr %3, align 8
  %86 = getelementptr inbounds %struct.Csw_Man_t_, ptr %85, i32 0, i32 1
  %87 = load ptr, ptr %86, align 8
  %88 = load ptr, ptr %6, align 8
  %89 = getelementptr inbounds %struct.Csw_Cut_t_, ptr %88, i32 0, i32 3
  %90 = load i32, ptr %89, align 8
  %91 = call ptr @Aig_ManObj(ptr noundef %87, i32 noundef %90)
  store ptr %91, ptr %5, align 8
  br label %117

92:                                               ; preds = %75
  br label %112

93:                                               ; preds = %61
  %94 = load ptr, ptr %8, align 8
  %95 = load ptr, ptr %7, align 8
  %96 = load ptr, ptr %4, align 8
  %97 = getelementptr inbounds %struct.Csw_Cut_t_, ptr %96, i32 0, i32 6
  %98 = load i8, ptr %97, align 1
  %99 = sext i8 %98 to i32
  %100 = call i32 @Kit_TruthIsOpposite(ptr noundef %94, ptr noundef %95, i32 noundef %99)
  %101 = icmp ne i32 %100, 0
  br i1 %101, label %102, label %111

102:                                              ; preds = %93
  %103 = load ptr, ptr %3, align 8
  %104 = getelementptr inbounds %struct.Csw_Man_t_, ptr %103, i32 0, i32 1
  %105 = load ptr, ptr %104, align 8
  %106 = load ptr, ptr %6, align 8
  %107 = getelementptr inbounds %struct.Csw_Cut_t_, ptr %106, i32 0, i32 3
  %108 = load i32, ptr %107, align 8
  %109 = call ptr @Aig_ManObj(ptr noundef %105, i32 noundef %108)
  %110 = call ptr @Aig_Not(ptr noundef %109)
  store ptr %110, ptr %5, align 8
  br label %117

111:                                              ; preds = %93
  br label %112

112:                                              ; preds = %111, %92
  br label %113

113:                                              ; preds = %112, %60, %45, %36
  %114 = load ptr, ptr %6, align 8
  %115 = getelementptr inbounds %struct.Csw_Cut_t_, ptr %114, i32 0, i32 0
  %116 = load ptr, ptr %115, align 8
  store ptr %116, ptr %6, align 8
  br label %23, !llvm.loop !8

117:                                              ; preds = %102, %84, %23
  %118 = load ptr, ptr %5, align 8
  ret ptr %118
}