; Function Attrs: nofree nounwind memory(read, inaccessiblemem: none) uwtable
define ptr @Csw_TableCutLookup(ptr noundef readonly captures(none) %0, ptr noundef readonly captures(none) %1) local_unnamed_addr #3 {
  %3 = getelementptr inbounds nuw i8, ptr %1, i64 23
  %4 = load i8, ptr %3, align 1
  %5 = icmp sgt i8 %4, 0
  br i1 %5, label %.lr.ph.i, label %Csw_CutHash.exit

.lr.ph.i:                                         ; preds = %2
  %wide.trip.count.i = zext nneg i8 %4 to i64
  %6 = getelementptr inbounds nuw i8, ptr %1, i64 24
  br label %7

7:                                                ; preds = %7, %.lr.ph.i
  %indvars.iv.i = phi i64 [ 0, %.lr.ph.i ], [ %indvars.iv.next.i, %7 ]
  %.078.i = phi i32 [ 0, %.lr.ph.i ], [ %13, %7 ]
  %8 = getelementptr inbounds nuw [0 x i32], ptr %6, i64 0, i64 %indvars.iv.i
  %9 = load i32, ptr %8, align 4
  %10 = getelementptr inbounds nuw [128 x i32], ptr @Csw_CutHash.s_FPrimes, i64 0, i64 %indvars.iv.i
  %11 = load i32, ptr %10, align 4
  %12 = mul nsw i32 %11, %9
  %13 = xor i32 %12, %.078.i
  %indvars.iv.next.i = add nuw nsw i64 %indvars.iv.i, 1
  %exitcond.not.i = icmp eq i64 %indvars.iv.next.i, %wide.trip.count.i
  br i1 %exitcond.not.i, label %Csw_CutHash.exit, label %7, !llvm.loop !4

Csw_CutHash.exit:                                 ; preds = %7, %2
  %.07.lcssa.i = phi i32 [ 0, %2 ], [ %13, %7 ]
  %14 = getelementptr inbounds nuw i8, ptr %0, i64 48
  %15 = load i32, ptr %14, align 8
  %16 = urem i32 %.07.lcssa.i, %15
  %17 = getelementptr inbounds nuw i8, ptr %0, i64 40
  %18 = load ptr, ptr %17, align 8
  %19 = sext i32 %16 to i64
  %20 = getelementptr inbounds ptr, ptr %18, i64 %19
  %.02751 = load ptr, ptr %20, align 8
  %.not52 = icmp eq ptr %.02751, null
  br i1 %.not52, label %Aig_ManObj.exit, label %.lr.ph

.lr.ph:                                           ; preds = %Csw_CutHash.exit
  %21 = getelementptr inbounds nuw i8, ptr %1, i64 12
  %22 = getelementptr inbounds nuw i8, ptr %1, i64 24
  %23 = sext i8 %4 to i64
  %24 = shl nsw i64 %23, 2
  %25 = getelementptr inbounds nuw i8, ptr %1, i64 22
  %26 = sext i8 %4 to i32
  %27 = icmp slt i8 %4, 6
  %28 = add nsw i32 %26, -5
  %29 = shl nuw i32 1, %28
  %30 = zext i32 %29 to i64
  %31 = select i1 %27, i64 1, i64 %30
  br label %32

32:                                               ; preds = %.lr.ph, %Kit_TruthIsEqual.exit.thread
  %.02753 = phi ptr [ %.02751, %.lr.ph ], [ %.027, %Kit_TruthIsEqual.exit.thread ]
  %33 = getelementptr inbounds nuw i8, ptr %.02753, i64 23
  %34 = load i8, ptr %33, align 1
  %.not28 = icmp eq i8 %34, %4
  br i1 %.not28, label %35, label %Kit_TruthIsEqual.exit.thread

35:                                               ; preds = %32
  %36 = getelementptr inbounds nuw i8, ptr %.02753, i64 12
  %37 = load i32, ptr %36, align 4
  %38 = load i32, ptr %21, align 4
  %.not29 = icmp eq i32 %37, %38
  br i1 %.not29, label %39, label %Kit_TruthIsEqual.exit.thread

39:                                               ; preds = %35
  %40 = getelementptr inbounds nuw i8, ptr %.02753, i64 24
  %bcmp = tail call i32 @bcmp(ptr nonnull %40, ptr nonnull %22, i64 %24)
  %.not30 = icmp eq i32 %bcmp, 0
  br i1 %.not30, label %41, label %Kit_TruthIsEqual.exit.thread

41:                                               ; preds = %39
  %42 = getelementptr inbounds nuw i8, ptr %.02753, i64 22
  %43 = load i8, ptr %42, align 2
  %44 = sext i8 %43 to i64
  %45 = getelementptr inbounds i32, ptr %40, i64 %44
  %46 = load i8, ptr %25, align 2
  %47 = sext i8 %46 to i64
  %48 = getelementptr inbounds i32, ptr %22, i64 %47
  %49 = load i32, ptr %45, align 4
  %50 = load i32, ptr %48, align 4
  %51 = xor i32 %50, %49
  %52 = and i32 %51, 1
  %53 = icmp eq i32 %52, 0
  br i1 %53, label %select.unfold.i, label %select.unfold.i37

select.unfold.i:                                  ; preds = %41, %56
  %indvars.iv.i34 = phi i64 [ %57, %56 ], [ %31, %41 ]
  %54 = trunc nuw i64 %indvars.iv.i34 to i32
  %55 = icmp sgt i32 %54, 0
  br i1 %55, label %56, label %Kit_TruthIsEqual.exit

56:                                               ; preds = %select.unfold.i
  %57 = add nsw i64 %indvars.iv.i34, -1
  %58 = getelementptr inbounds nuw i32, ptr %45, i64 %57
  %59 = load i32, ptr %58, align 4
  %60 = getelementptr inbounds nuw i32, ptr %48, i64 %57
  %61 = load i32, ptr %60, align 4
  %.not.i = icmp eq i32 %59, %61
  br i1 %.not.i, label %select.unfold.i, label %Kit_TruthIsEqual.exit.thread, !llvm.loop !8

Kit_TruthIsEqual.exit:                            ; preds = %select.unfold.i
  %62 = getelementptr inbounds nuw i8, ptr %0, i64 8
  %63 = load ptr, ptr %62, align 8
  %64 = getelementptr i8, ptr %63, i64 32
  %.val = load ptr, ptr %64, align 8
  %.not.i35 = icmp eq ptr %.val, null
  br i1 %.not.i35, label %Aig_ManObj.exit, label %65

65:                                               ; preds = %Kit_TruthIsEqual.exit
  %66 = getelementptr inbounds nuw i8, ptr %.02753, i64 16
  %67 = load i32, ptr %66, align 8
  %68 = getelementptr i8, ptr %.val, i64 8
  %.val.i = load ptr, ptr %68, align 8
  %69 = sext i32 %67 to i64
  %70 = getelementptr inbounds ptr, ptr %.val.i, i64 %69
  %71 = load ptr, ptr %70, align 8
  br label %Aig_ManObj.exit

select.unfold.i37:                                ; preds = %41, %74
  %indvars.iv.i38 = phi i64 [ %75, %74 ], [ %31, %41 ]
  %72 = trunc nuw i64 %indvars.iv.i38 to i32
  %73 = icmp sgt i32 %72, 0
  br i1 %73, label %74, label %Kit_TruthIsOpposite.exit

74:                                               ; preds = %select.unfold.i37
  %75 = add nsw i64 %indvars.iv.i38, -1
  %76 = getelementptr inbounds nuw i32, ptr %45, i64 %75
  %77 = load i32, ptr %76, align 4
  %78 = getelementptr inbounds nuw i32, ptr %48, i64 %75
  %79 = load i32, ptr %78, align 4
  %80 = xor i32 %79, %77
  %.not.i40 = icmp eq i32 %80, -1
  br i1 %.not.i40, label %select.unfold.i37, label %Kit_TruthIsEqual.exit.thread, !llvm.loop !9

Kit_TruthIsOpposite.exit:                         ; preds = %select.unfold.i37
  %81 = getelementptr inbounds nuw i8, ptr %0, i64 8
  %82 = load ptr, ptr %81, align 8
  %83 = getelementptr i8, ptr %82, i64 32
  %.val33 = load ptr, ptr %83, align 8
  %.not.i41 = icmp eq ptr %.val33, null
  br i1 %.not.i41, label %Aig_ManObj.exit43, label %84

84:                                               ; preds = %Kit_TruthIsOpposite.exit
  %85 = getelementptr inbounds nuw i8, ptr %.02753, i64 16
  %86 = load i32, ptr %85, align 8
  %87 = getelementptr i8, ptr %.val33, i64 8
  %.val.i42 = load ptr, ptr %87, align 8
  %88 = sext i32 %86 to i64
  %89 = getelementptr inbounds ptr, ptr %.val.i42, i64 %88
  %90 = load ptr, ptr %89, align 8
  %91 = ptrtoint ptr %90 to i64
  %92 = xor i64 %91, 1
  br label %Aig_ManObj.exit43

Aig_ManObj.exit43:                                ; preds = %Kit_TruthIsOpposite.exit, %84
  %93 = phi i64 [ %92, %84 ], [ 1, %Kit_TruthIsOpposite.exit ]
  %94 = inttoptr i64 %93 to ptr
  br label %Aig_ManObj.exit

Kit_TruthIsEqual.exit.thread:                     ; preds = %74, %56, %39, %35, %32
  %.027 = load ptr, ptr %.02753, align 8
  %.not = icmp eq ptr %.027, null
  br i1 %.not, label %Aig_ManObj.exit, label %32, !llvm.loop !10

Aig_ManObj.exit:                                  ; preds = %Kit_TruthIsEqual.exit.thread, %Csw_CutHash.exit, %65, %Kit_TruthIsEqual.exit, %Aig_ManObj.exit43
  %.0 = phi ptr [ %94, %Aig_ManObj.exit43 ], [ %71, %65 ], [ null, %Kit_TruthIsEqual.exit ], [ null, %Csw_CutHash.exit ], [ null, %Kit_TruthIsEqual.exit.thread ]
  ret ptr %.0
}